target datalayout = "e-m:e-p270:32:32-p271:32:32-p272:64:64-i64:64-i128:128-f80:128-n8:16:32:64-S128"
target triple = "x86_64-pc-linux-gnu"

; Function Attrs: nounwind uwtable
define internal void @eotf_smpte_st428_1(double noundef %0, double noundef %1, ptr noundef %2) #0 {
  %4 = alloca double, align 8
  %5 = alloca double, align 8
  %6 = alloca ptr, align 8
  %7 = alloca [3 x double], align 16
  %8 = alloca [3 x double], align 16
  %9 = alloca i32, align 4
  store double %0, ptr %4, align 8, !tbaa !27
  store double %1, ptr %5, align 8, !tbaa !27
  store ptr %2, ptr %6, align 8, !tbaa !30
  call void @llvm.lifetime.start.p0(i64 24, ptr %7) #7
  %10 = load double, ptr %4, align 8, !tbaa !27
  %11 = fmul nsz double 0x3FECA06D3A06D3A0, %10
  store double %11, ptr %7, align 8, !tbaa !27
  %12 = getelementptr inbounds double, ptr %7, i64 1
  %13 = load double, ptr %4, align 8, !tbaa !27
  store double %13, ptr %12, align 8, !tbaa !27
  %14 = getelementptr inbounds double, ptr %7, i64 2
  %15 = load double, ptr %4, align 8, !tbaa !27
  %16 = fmul nsz double 0x3FEE8BF258BF258C, %15
  store double %16, ptr %14, align 8, !tbaa !27
  call void @llvm.lifetime.start.p0(i64 24, ptr %8) #7
  %17 = load double, ptr %5, align 8, !tbaa !27
  %18 = fmul nsz double 0x3FECA06D3A06D3A0, %17
  store double %18, ptr %8, align 8, !tbaa !27
  %19 = getelementptr inbounds double, ptr %8, i64 1
  %20 = load double, ptr %5, align 8, !tbaa !27
  store double %20, ptr %19, align 8, !tbaa !27
  %21 = getelementptr inbounds double, ptr %8, i64 2
  %22 = load double, ptr %5, align 8, !tbaa !27
  %23 = fmul nsz double 0x3FEE8BF258BF258C, %22
  store double %23, ptr %21, align 8, !tbaa !27
  call void @llvm.lifetime.start.p0(i64 4, ptr %9) #7
  store i32 0, ptr %9, align 4, !tbaa !4
  br label %24

24:                                               ; preds = %74, %3
  %25 = load i32, ptr %9, align 4, !tbaa !4
  %26 = icmp slt i32 %25, 3
  br i1 %26, label %28, label %27

27:                                               ; preds = %24
  call void @llvm.lifetime.end.p0(i64 4, ptr %9) #7
  br label %77

28:                                               ; preds = %24
  %29 = load ptr, ptr %6, align 8, !tbaa !30
  %30 = load i32, ptr %9, align 4, !tbaa !4
  %31 = sext i32 %30 to i64
  %32 = getelementptr inbounds double, ptr %29, i64 %31
  %33 = load double, ptr %32, align 8, !tbaa !27
  %34 = fcmp nsz ogt double 0.000000e+00, %33
  br i1 %34, label %35, label %36

35:                                               ; preds = %28
  br label %45

36:                                               ; preds = %28
  %37 = load ptr, ptr %6, align 8, !tbaa !30
  %38 = load i32, ptr %9, align 4, !tbaa !4
  %39 = sext i32 %38 to i64
  %40 = getelementptr inbounds double, ptr %37, i64 %39
  %41 = load double, ptr %40, align 8, !tbaa !27
  %42 = call nsz double @llvm.pow.f64(double %41, double 2.600000e+00)
  %43 = fmul nsz double %42, 5.237000e+01
  %44 = fdiv nsz double %43, 4.800000e+01
  br label %45

45:                                               ; preds = %36, %35
  %46 = phi nsz double [ 0.000000e+00, %35 ], [ %44, %36 ]
  %47 = load ptr, ptr %6, align 8, !tbaa !30
  %48 = load i32, ptr %9, align 4, !tbaa !4
  %49 = sext i32 %48 to i64
  %50 = getelementptr inbounds double, ptr %47, i64 %49
  store double %46, ptr %50, align 8, !tbaa !27
  %51 = load ptr, ptr %6, align 8, !tbaa !30
  %52 = load i32, ptr %9, align 4, !tbaa !4
  %53 = sext i32 %52 to i64
  %54 = getelementptr inbounds double, ptr %51, i64 %53
  %55 = load double, ptr %54, align 8, !tbaa !27
  %56 = load i32, ptr %9, align 4, !tbaa !4
  %57 = sext i32 %56 to i64
  %58 = getelementptr inbounds [3 x double], ptr %7, i64 0, i64 %57
  %59 = load double, ptr %58, align 8, !tbaa !27
  %60 = load i32, ptr %9, align 4, !tbaa !4
  %61 = sext i32 %60 to i64
  %62 = getelementptr inbounds [3 x double], ptr %8, i64 0, i64 %61
  %63 = load double, ptr %62, align 8, !tbaa !27
  %64 = fsub nsz double %59, %63
  %65 = load i32, ptr %9, align 4, !tbaa !4
  %66 = sext i32 %65 to i64
  %67 = getelementptr inbounds [3 x double], ptr %8, i64 0, i64 %66
  %68 = load double, ptr %67, align 8, !tbaa !27
  %69 = call nsz double @llvm.fmuladd.f64(double %55, double %64, double %68)
  %70 = load ptr, ptr %6, align 8, !tbaa !30
  %71 = load i32, ptr %9, align 4, !tbaa !4
  %72 = sext i32 %71 to i64
  %73 = getelementptr inbounds double, ptr %70, i64 %72
  store double %69, ptr %73, align 8, !tbaa !27
  br label %74

74:                                               ; preds = %45
  %75 = load i32, ptr %9, align 4, !tbaa !4
  %76 = add nsw i32 %75, 1
  store i32 %76, ptr %9, align 4, !tbaa !4
  br label %24, !llvm.loop !35

77:                                               ; preds = %27
  call void @llvm.lifetime.end.p0(i64 24, ptr %8) #7
  call void @llvm.lifetime.end.p0(i64 24, ptr %7) #7
  ret void
}