; Function Attrs: nofree norecurse nosync nounwind memory(argmem: readwrite) uwtable
define internal void @eotf_smpte_st428_1(double noundef %0, double noundef %1, ptr noundef captures(none) %2) #5 {
  %4 = alloca [3 x double], align 16
  %5 = alloca [3 x double], align 16
  call void @llvm.lifetime.start.p0(i64 24, ptr nonnull %4) #8
  %6 = fmul nsz double %0, 0x3FECA06D3A06D3A0
  store double %6, ptr %4, align 16, !tbaa !16
  %7 = getelementptr inbounds nuw i8, ptr %4, i64 8
  store double %0, ptr %7, align 8, !tbaa !16
  %8 = getelementptr inbounds nuw i8, ptr %4, i64 16
  %9 = fmul nsz double %0, 0x3FEE8BF258BF258C
  store double %9, ptr %8, align 16, !tbaa !16
  call void @llvm.lifetime.start.p0(i64 24, ptr nonnull %5) #8
  %10 = fmul nsz double %1, 0x3FECA06D3A06D3A0
  store double %10, ptr %5, align 16, !tbaa !16
  %11 = getelementptr inbounds nuw i8, ptr %5, i64 8
  store double %1, ptr %11, align 8, !tbaa !16
  %12 = getelementptr inbounds nuw i8, ptr %5, i64 16
  %13 = fmul nsz double %1, 0x3FEE8BF258BF258C
  store double %13, ptr %12, align 16, !tbaa !16
  br label %15

14:                                               ; preds = %23
  call void @llvm.lifetime.end.p0(i64 24, ptr nonnull %5) #8
  call void @llvm.lifetime.end.p0(i64 24, ptr nonnull %4) #8
  ret void

15:                                               ; preds = %3, %23
  %indvars.iv = phi i64 [ 0, %3 ], [ %indvars.iv.next, %23 ]
  %16 = getelementptr inbounds nuw double, ptr %2, i64 %indvars.iv
  %17 = load double, ptr %16, align 8, !tbaa !16
  %18 = fcmp nsz olt double %17, 0.000000e+00
  br i1 %18, label %23, label %19

19:                                               ; preds = %15
  %20 = tail call nsz double @llvm.pow.f64(double %17, double 2.600000e+00)
  %21 = fmul nsz double %20, 5.237000e+01
  %22 = fdiv nsz double %21, 4.800000e+01
  br label %23

23:                                               ; preds = %15, %19
  %24 = phi nsz double [ %22, %19 ], [ 0.000000e+00, %15 ]
  %25 = getelementptr inbounds nuw [3 x double], ptr %4, i64 0, i64 %indvars.iv
  %26 = load double, ptr %25, align 8, !tbaa !16
  %27 = getelementptr inbounds nuw [3 x double], ptr %5, i64 0, i64 %indvars.iv
  %28 = load double, ptr %27, align 8, !tbaa !16
  %29 = fsub nsz double %26, %28
  %30 = tail call nsz double @llvm.fmuladd.f64(double %24, double %29, double %28)
  store double %30, ptr %16, align 8, !tbaa !16
  %indvars.iv.next = add nuw nsw i64 %indvars.iv, 1
  %exitcond.not = icmp eq i64 %indvars.iv.next, 3
  br i1 %exitcond.not, label %14, label %15, !llvm.loop !26
}